; Function Attrs: mustprogress uwtable
define noundef i64 @_ZNK8QuantLib33CallSpecifiedPathwiseMultiProduct16numberOfProductsEv(ptr nocapture noundef nonnull readonly align 8 dereferenceable(281) %this) unnamed_addr #0 align 2 {
entry:
  %underlying_ = getelementptr inbounds nuw i8, ptr %this, i64 8
  %0 = load ptr, ptr %underlying_, align 8, !tbaa !6
  %vtable = load ptr, ptr %0, align 8, !tbaa !3
  %vfn = getelementptr inbounds i8, ptr %vtable, i64 40
  %1 = load ptr, ptr %vfn, align 8
  %call2 = tail call noundef i64 %1(ptr noundef nonnull align 8 dereferenceable(8) %0)
  ret i64 %call2
}